target datalayout = "e-m:e-p270:32:32-p271:32:32-p272:64:64-i64:64-i128:128-f80:128-n8:16:32:64-S128"
target triple = "x86_64-pc-linux-gnu"

%"class.OpenColorIO_v2_5dev::MatrixOpData::Offsets" = type { [4 x double] }

; Function Attrs: mustprogress nounwind uwtable
define hidden void @_ZN19OpenColorIO_v2_5dev12MatrixOpData7Offsets5scaleEd(ptr noundef nonnull align 8 dereferenceable(32) %0, double noundef %1) #7 align 2 {
  %3 = alloca ptr, align 8
  %4 = alloca double, align 8
  %5 = alloca i32, align 4
  store ptr %0, ptr %3, align 8, !tbaa !3
  store double %1, ptr %4, align 8, !tbaa !12
  %6 = load ptr, ptr %3, align 8
  call void @llvm.lifetime.start.p0(i64 4, ptr %5) #3
  store i32 0, ptr %5, align 4, !tbaa !30
  br label %7

7:                                                ; preds = %19, %2
  %8 = load i32, ptr %5, align 4, !tbaa !30
  %9 = icmp ult i32 %8, 4
  br i1 %9, label %11, label %10

10:                                               ; preds = %7
  call void @llvm.lifetime.end.p0(i64 4, ptr %5) #3
  br label %22

11:                                               ; preds = %7
  %12 = load double, ptr %4, align 8, !tbaa !12
  %13 = getelementptr inbounds nuw %"class.OpenColorIO_v2_5dev::MatrixOpData::Offsets", ptr %6, i32 0, i32 0
  %14 = load i32, ptr %5, align 4, !tbaa !30
  %15 = zext i32 %14 to i64
  %16 = getelementptr inbounds nuw [4 x double], ptr %13, i64 0, i64 %15
  %17 = load double, ptr %16, align 8, !tbaa !12
  %18 = fmul double %17, %12
  store double %18, ptr %16, align 8, !tbaa !12
  br label %19

19:                                               ; preds = %11
  %20 = load i32, ptr %5, align 4, !tbaa !30
  %21 = add i32 %20, 1
  store i32 %21, ptr %5, align 4, !tbaa !30
  br label %7, !llvm.loop !32

22:                                               ; preds = %10
  ret void
}