; Function Attrs: mustprogress nofree norecurse nosync nounwind memory(argmem: readwrite) uwtable
define hidden void @_ZN19OpenColorIO_v2_5dev12MatrixOpData7Offsets5scaleEd(ptr noundef nonnull align 8 captures(none) dereferenceable(32) %0, double noundef %1) local_unnamed_addr #13 align 2 {
  br label %4

3:                                                ; preds = %4
  ret void

4:                                                ; preds = %2, %4
  %indvars.iv = phi i64 [ 0, %2 ], [ %indvars.iv.next, %4 ]
  %5 = getelementptr inbounds nuw [4 x double], ptr %0, i64 0, i64 %indvars.iv
  %6 = load double, ptr %5, align 8, !tbaa !7
  %7 = fmul double %1, %6
  store double %7, ptr %5, align 8, !tbaa !7
  %indvars.iv.next = add nuw nsw i64 %indvars.iv, 1
  %exitcond.not = icmp eq i64 %indvars.iv.next, 4
  br i1 %exitcond.not, label %3, label %4, !llvm.loop !13
}